target datalayout = "e-m:e-p270:32:32-p271:32:32-p272:64:64-i64:64-i128:128-f80:128-n8:16:32:64-S128"
target triple = "x86_64-pc-linux-gnu"

@prte_tool_basename = external global ptr, align 8
@sigpipe_error_count = internal global i32 0, align 4
@.str.140 = private unnamed_addr constant [32 x i8] c"%s: SIGPIPE detected - aborting\00", align 1

; Function Attrs: nounwind uwtable
define internal void @epipe_signal_callback(i32 noundef %0, i16 noundef signext %1, ptr noundef %2) #0 {
  %4 = alloca i32, align 4
  %5 = alloca i16, align 2
  %6 = alloca ptr, align 8
  store i32 %0, ptr %4, align 4, !tbaa !4
  store i16 %1, ptr %5, align 2, !tbaa !159
  store ptr %2, ptr %6, align 8, !tbaa !30
  %7 = load i32, ptr @sigpipe_error_count, align 4, !tbaa !4
  %8 = add nsw i32 %7, 1
  store i32 %8, ptr @sigpipe_error_count, align 4, !tbaa !4
  %9 = load i32, ptr @sigpipe_error_count, align 4, !tbaa !4
  %10 = icmp slt i32 10, %9
  br i1 %10, label %11, label %13

11:                                               ; preds = %3
  %12 = load ptr, ptr @prte_tool_basename, align 8, !tbaa !22
  call void (i32, ptr, ...) @pmix_output(i32 noundef 0, ptr noundef @.str.140, ptr noundef %12)
  call void @clean_abort(i32 noundef 0, i16 noundef signext 0, ptr noundef null)
  br label %13

13:                                               ; preds = %11, %3
  ret void
}