; Function Attrs: nounwind uwtable
define internal void @epipe_signal_callback(i32 %0, i16 signext %1, ptr readnone captures(none) %2) #0 {
  %4 = load i32, ptr @sigpipe_error_count, align 4, !tbaa !9
  %5 = add nsw i32 %4, 1
  store i32 %5, ptr @sigpipe_error_count, align 4, !tbaa !9
  %6 = icmp sgt i32 %4, 9
  br i1 %6, label %7, label %9

7:                                                ; preds = %3
  %8 = load ptr, ptr @prte_tool_basename, align 8, !tbaa !24
  tail call void (i32, ptr, ...) @pmix_output(i32 noundef 0, ptr noundef nonnull @.str.140, ptr noundef %8) #23
  tail call void @clean_abort(i32 poison, i16 signext poison, ptr poison)
  br label %9

9:                                                ; preds = %7, %3
  ret void
}